target datalayout = "e-m:e-p270:32:32-p271:32:32-p272:64:64-i64:64-i128:128-f80:128-n8:16:32:64-S128"
target triple = "x86_64-unknown-linux-gnu"

%struct.sockaddr_in = type { i16, i16, %struct.in_addr, [8 x i8] }
%struct.in_addr = type { i32 }
%struct.NetSocketState = type { %struct.NetClientState, i32, i32, %struct.SocketReadState, i32, %struct.sockaddr_in, ptr, i8, i8 }
%struct.NetClientState = type { ptr, i32, %union.anon.1, ptr, ptr, ptr, ptr, [256 x i8], i8, ptr, i32, i8, i32, i32, i8, i8, i8, %union.anon.2 }
%union.anon.1 = type { %struct.QTailQLink }
%struct.QTailQLink = type { ptr, ptr }
%union.anon.2 = type { %struct.QTailQLink }
%struct.SocketReadState = type { i32, i8, i32, i32, i32, [69632 x i8], ptr }

@.str.21 = private unnamed_addr constant [3 x i8] c"%s\00", align 1
@.str.22 = private unnamed_addr constant [1 x i8] zeroinitializer, align 1

; Function Attrs: nounwind sspstrong uwtable
define internal void @net_socket_update_fd_handler(ptr noundef %s) #0 {
entry:
  %s.addr = alloca ptr, align 8
  store ptr %s, ptr %s.addr, align 8
  %0 = load ptr, ptr %s.addr, align 8
  %fd = getelementptr inbounds %struct.NetSocketState, ptr %0, i32 0, i32 2
  %1 = load i32, ptr %fd, align 4
  %2 = load ptr, ptr %s.addr, align 8
  %read_poll = getelementptr inbounds %struct.NetSocketState, ptr %2, i32 0, i32 7
  %3 = load i8, ptr %read_poll, align 8
  %tobool = trunc i8 %3 to i1
  br i1 %tobool, label %cond.true, label %cond.false

cond.true:                                        ; preds = %entry
  %4 = load ptr, ptr %s.addr, align 8
  %send_fn = getelementptr inbounds %struct.NetSocketState, ptr %4, i32 0, i32 6
  %5 = load ptr, ptr %send_fn, align 8
  br label %cond.end

cond.false:                                       ; preds = %entry
  br label %cond.end

cond.end:                                         ; preds = %cond.false, %cond.true
  %cond = phi ptr [ %5, %cond.true ], [ null, %cond.false ]
  %6 = load ptr, ptr %s.addr, align 8
  %write_poll = getelementptr inbounds %struct.NetSocketState, ptr %6, i32 0, i32 8
  %7 = load i8, ptr %write_poll, align 1
  %tobool1 = trunc i8 %7 to i1
  %cond2 = select i1 %tobool1, ptr @net_socket_writable, ptr null
  %8 = load ptr, ptr %s.addr, align 8
  call void @qemu_set_fd_handler(i32 noundef %1, ptr noundef %cond, ptr noundef %cond2, ptr noundef %8)
  ret void
}

; Function Attrs: nounwind sspstrong uwtable
define internal void @net_socket_write_poll(ptr noundef %s, i1 noundef zeroext %enable) #0 {
entry:
  %s.addr = alloca ptr, align 8
  %enable.addr = alloca i8, align 1
  store ptr %s, ptr %s.addr, align 8
  %frombool = zext i1 %enable to i8
  store i8 %frombool, ptr %enable.addr, align 1
  %0 = load i8, ptr %enable.addr, align 1
  %tobool = trunc i8 %0 to i1
  %1 = load ptr, ptr %s.addr, align 8
  %write_poll = getelementptr inbounds %struct.NetSocketState, ptr %1, i32 0, i32 8
  %frombool1 = zext i1 %tobool to i8
  store i8 %frombool1, ptr %write_poll, align 1
  %2 = load ptr, ptr %s.addr, align 8
  call void @net_socket_update_fd_handler(ptr noundef %2)
  ret void
}

; Function Attrs: nounwind sspstrong uwtable
define internal void @net_socket_read_poll(ptr noundef %s, i1 noundef zeroext %enable) #0 {
entry:
  %s.addr = alloca ptr, align 8
  %enable.addr = alloca i8, align 1
  store ptr %s, ptr %s.addr, align 8
  %frombool = zext i1 %enable to i8
  store i8 %frombool, ptr %enable.addr, align 1
  %0 = load i8, ptr %enable.addr, align 1
  %tobool = trunc i8 %0 to i1
  %1 = load ptr, ptr %s.addr, align 8
  %read_poll = getelementptr inbounds %struct.NetSocketState, ptr %1, i32 0, i32 7
  %frombool1 = zext i1 %tobool to i8
  store i8 %frombool1, ptr %read_poll, align 8
  %2 = load ptr, ptr %s.addr, align 8
  call void @net_socket_update_fd_handler(ptr noundef %2)
  ret void
}

; Function Attrs: nounwind sspstrong uwtable
define internal void @net_socket_send(ptr noundef %opaque) #0 {
entry:
  %opaque.addr = alloca ptr, align 8
  %s = alloca ptr, align 8
  %size = alloca i32, align 4
  %ret = alloca i32, align 4
  %buf1 = alloca [69632 x i8], align 16
  %buf = alloca ptr, align 8
  store ptr %opaque, ptr %opaque.addr, align 8
  %0 = load ptr, ptr %opaque.addr, align 8
  store ptr %0, ptr %s, align 8
  %1 = load ptr, ptr %s, align 8
  %fd = getelementptr inbounds %struct.NetSocketState, ptr %1, i32 0, i32 2
  %2 = load i32, ptr %fd, align 4
  %arraydecay = getelementptr inbounds [69632 x i8], ptr %buf1, i64 0, i64 0
  %call = call i64 @recv(i32 noundef %2, ptr noundef %arraydecay, i64 noundef 69632, i32 noundef 0)
  %conv = trunc i64 %call to i32
  store i32 %conv, ptr %size, align 4
  %3 = load i32, ptr %size, align 4
  %cmp = icmp slt i32 %3, 0
  br i1 %cmp, label %if.then, label %if.else

if.then:                                          ; preds = %entry
  %call2 = call ptr @__errno_location() #8
  %4 = load i32, ptr %call2, align 4
  %cmp3 = icmp ne i32 %4, 11
  br i1 %cmp3, label %if.then5, label %if.end

if.then5:                                         ; preds = %if.then
  br label %eoc

if.end:                                           ; preds = %if.then
  br label %if.end19

if.else:                                          ; preds = %entry
  %5 = load i32, ptr %size, align 4
  %cmp6 = icmp eq i32 %5, 0
  br i1 %cmp6, label %if.then8, label %if.end18

if.then8:                                         ; preds = %if.else
  br label %eoc

eoc:                                              ; preds = %if.then25, %if.then8, %if.then5
  %6 = load ptr, ptr %s, align 8
  call void @net_socket_read_poll(ptr noundef %6, i1 noundef zeroext false)
  %7 = load ptr, ptr %s, align 8
  call void @net_socket_write_poll(ptr noundef %7, i1 noundef zeroext false)
  %8 = load ptr, ptr %s, align 8
  %listen_fd = getelementptr inbounds %struct.NetSocketState, ptr %8, i32 0, i32 1
  %9 = load i32, ptr %listen_fd, align 8
  %cmp9 = icmp ne i32 %9, -1
  br i1 %cmp9, label %if.then11, label %if.end13

if.then11:                                        ; preds = %eoc
  %10 = load ptr, ptr %s, align 8
  %listen_fd12 = getelementptr inbounds %struct.NetSocketState, ptr %10, i32 0, i32 1
  %11 = load i32, ptr %listen_fd12, align 8
  %12 = load ptr, ptr %s, align 8
  call void @qemu_set_fd_handler(i32 noundef %11, ptr noundef @net_socket_accept, ptr noundef null, ptr noundef %12)
  br label %if.end13

if.end13:                                         ; preds = %if.then11, %eoc
  %13 = load ptr, ptr %s, align 8
  %fd14 = getelementptr inbounds %struct.NetSocketState, ptr %13, i32 0, i32 2
  %14 = load i32, ptr %fd14, align 4
  %call15 = call i32 @close(i32 noundef %14)
  %15 = load ptr, ptr %s, align 8
  %fd16 = getelementptr inbounds %struct.NetSocketState, ptr %15, i32 0, i32 2
  store i32 -1, ptr %fd16, align 4
  %16 = load ptr, ptr %s, align 8
  %rs = getelementptr inbounds %struct.NetSocketState, ptr %16, i32 0, i32 3
  call void @net_socket_rs_init(ptr noundef %rs, ptr noundef @net_socket_rs_finalize, i1 noundef zeroext false)
  %17 = load ptr, ptr %s, align 8
  %nc = getelementptr inbounds %struct.NetSocketState, ptr %17, i32 0, i32 0
  %link_down = getelementptr inbounds %struct.NetClientState, ptr %nc, i32 0, i32 1
  store i32 1, ptr %link_down, align 8
  %18 = load ptr, ptr %s, align 8
  %nc17 = getelementptr inbounds %struct.NetSocketState, ptr %18, i32 0, i32 0
  call void (ptr, ptr, ...) @qemu_set_info_str(ptr noundef %nc17, ptr noundef @.str.21, ptr noundef @.str.22)
  br label %if.end26

if.end18:                                         ; preds = %if.else
  br label %if.end19

if.end19:                                         ; preds = %if.end18, %if.end
  %arraydecay20 = getelementptr inbounds [69632 x i8], ptr %buf1, i64 0, i64 0
  store ptr %arraydecay20, ptr %buf, align 8
  %19 = load ptr, ptr %s, align 8
  %rs21 = getelementptr inbounds %struct.NetSocketState, ptr %19, i32 0, i32 3
  %20 = load ptr, ptr %buf, align 8
  %21 = load i32, ptr %size, align 4
  %call22 = call i32 @net_fill_rstate(ptr noundef %rs21, ptr noundef %20, i32 noundef %21)
  store i32 %call22, ptr %ret, align 4
  %22 = load i32, ptr %ret, align 4
  %cmp23 = icmp eq i32 %22, -1
  br i1 %cmp23, label %if.then25, label %if.end26

if.then25:                                        ; preds = %if.end19
  br label %eoc

if.end26:                                         ; preds = %if.end19, %if.end13
  ret void
}