; Function Attrs: nounwind sspstrong uwtable
define internal void @net_socket_send(ptr noundef %opaque) #0 {
entry:
  %buf1 = alloca [69632 x i8], align 16
  %fd = getelementptr inbounds nuw i8, ptr %opaque, i64 380
  %0 = load i32, ptr %fd, align 4
  %call = call i64 @recv(i32 noundef %0, ptr noundef nonnull %buf1, i64 noundef 69632, i32 noundef 0) #8
  %conv = trunc i64 %call to i32
  %cmp = icmp slt i32 %conv, 0
  br i1 %cmp, label %if.then, label %if.else

if.then:                                          ; preds = %entry
  %call2 = tail call ptr @__errno_location() #9
  %1 = load i32, ptr %call2, align 4
  %cmp3.not = icmp eq i32 %1, 11
  br i1 %cmp3.not, label %if.end19, label %eoc

if.else:                                          ; preds = %entry
  %cmp6 = icmp eq i32 %conv, 0
  br i1 %cmp6, label %eoc, label %if.end19

eoc:                                              ; preds = %if.end19, %if.else, %if.then
  %read_poll.i = getelementptr inbounds nuw i8, ptr %opaque, i64 70080
  store i8 0, ptr %read_poll.i, align 8
  %2 = load i32, ptr %fd, align 4
  %write_poll.i.i = getelementptr inbounds nuw i8, ptr %opaque, i64 70081
  %3 = load i8, ptr %write_poll.i.i, align 1
  %tobool1.i.i = trunc i8 %3 to i1
  %cond2.i.i = select i1 %tobool1.i.i, ptr @net_socket_writable, ptr null
  call void @qemu_set_fd_handler(i32 noundef %2, ptr noundef null, ptr noundef %cond2.i.i, ptr noundef nonnull %opaque) #8
  store i8 0, ptr %write_poll.i.i, align 1
  %4 = load i32, ptr %fd, align 4
  %5 = load i8, ptr %read_poll.i, align 8
  %tobool.i.i = trunc i8 %5 to i1
  br i1 %tobool.i.i, label %cond.true.i.i, label %net_socket_write_poll.exit

cond.true.i.i:                                    ; preds = %eoc
  %send_fn.i.i = getelementptr inbounds nuw i8, ptr %opaque, i64 70072
  %6 = load ptr, ptr %send_fn.i.i, align 8
  br label %net_socket_write_poll.exit

net_socket_write_poll.exit:                       ; preds = %eoc, %cond.true.i.i
  %cond.i.i = phi ptr [ %6, %cond.true.i.i ], [ null, %eoc ]
  call void @qemu_set_fd_handler(i32 noundef %4, ptr noundef %cond.i.i, ptr noundef null, ptr noundef nonnull %opaque) #8
  %listen_fd = getelementptr inbounds nuw i8, ptr %opaque, i64 376
  %7 = load i32, ptr %listen_fd, align 8
  %cmp9.not = icmp eq i32 %7, -1
  br i1 %cmp9.not, label %if.end13, label %if.then11

if.then11:                                        ; preds = %net_socket_write_poll.exit
  call void @qemu_set_fd_handler(i32 noundef %7, ptr noundef nonnull @net_socket_accept, ptr noundef null, ptr noundef nonnull %opaque) #8
  br label %if.end13

if.end13:                                         ; preds = %if.then11, %net_socket_write_poll.exit
  %8 = load i32, ptr %fd, align 4
  %call15 = call i32 @close(i32 noundef %8) #8
  store i32 -1, ptr %fd, align 4
  %rs = getelementptr inbounds nuw i8, ptr %opaque, i64 384
  call void @net_socket_rs_init(ptr noundef nonnull %rs, ptr noundef nonnull @net_socket_rs_finalize, i1 noundef zeroext false) #8
  %link_down = getelementptr inbounds nuw i8, ptr %opaque, i64 8
  store i32 1, ptr %link_down, align 8
  call void (ptr, ptr, ...) @qemu_set_info_str(ptr noundef nonnull %opaque, ptr noundef nonnull @.str.21, ptr noundef nonnull @.str.22) #8
  br label %if.end26

if.end19:                                         ; preds = %if.else, %if.then
  %rs21 = getelementptr inbounds nuw i8, ptr %opaque, i64 384
  %call22 = call i32 @net_fill_rstate(ptr noundef nonnull %rs21, ptr noundef nonnull %buf1, i32 noundef %conv) #8
  %cmp23 = icmp eq i32 %call22, -1
  br i1 %cmp23, label %eoc, label %if.end26

if.end26:                                         ; preds = %if.end19, %if.end13
  ret void
}